; Function Attrs: mustprogress uwtable
define noundef ptr @_ZN5Yosys10log_signalERKNS_14DriveChunkWireE(ptr noundef nonnull readonly align 8 captures(none) dereferenceable(16) %0) local_unnamed_addr #5 personality ptr @__gxx_personality_v0 {
  %2 = alloca %"class.std::__cxx11::basic_string", align 8
  %3 = alloca %"class.std::__cxx11::basic_string", align 8
  %4 = load ptr, ptr %0, align 8, !tbaa !58
  %5 = getelementptr inbounds nuw i8, ptr %4, i64 88
  %6 = tail call noundef ptr @_ZN5Yosys6log_idERKNS_5RTLIL8IdStringE(ptr noundef nonnull align 4 dereferenceable(4) %5)
  %7 = getelementptr inbounds nuw i8, ptr %0, i64 8
  %8 = load i32, ptr %7, align 8, !tbaa !60
  %9 = icmp eq i32 %8, 0
  %10 = getelementptr inbounds nuw i8, ptr %0, i64 12
  %11 = load i32, ptr %10, align 4, !tbaa !77
  br i1 %9, label %_ZNK5Yosys14DriveChunkWire8is_wholeEv.exit, label %_ZNK5Yosys14DriveChunkWire8is_wholeEv.exit.thread

_ZNK5Yosys14DriveChunkWire8is_wholeEv.exit:       ; preds = %1
  %12 = load ptr, ptr %0, align 8, !tbaa !58
  %13 = getelementptr inbounds nuw i8, ptr %12, i64 92
  %14 = load i32, ptr %13, align 4, !tbaa !260
  %15 = icmp eq i32 %11, %14
  br i1 %15, label %61, label %_ZNK5Yosys14DriveChunkWire8is_wholeEv.exit.thread

_ZNK5Yosys14DriveChunkWire8is_wholeEv.exit.thread: ; preds = %1, %_ZNK5Yosys14DriveChunkWire8is_wholeEv.exit
  %16 = icmp eq i32 %11, 1
  br i1 %16, label %17, label %38

17:                                               ; preds = %_ZNK5Yosys14DriveChunkWire8is_wholeEv.exit.thread
  call void @llvm.lifetime.start.p0(i64 32, ptr nonnull %2) #28
  call void (ptr, ptr, ...) @_ZN5Yosys7stringfB5cxx11EPKcz(ptr dead_on_unwind nonnull writable sret(%"class.std::__cxx11::basic_string") align 8 %2, ptr noundef nonnull @.str.2, ptr noundef %6, i32 noundef %8)
  %18 = invoke noundef ptr @_ZN5Yosys7log_strERKNSt7__cxx1112basic_stringIcSt11char_traitsIcESaIcEEE(ptr noundef nonnull align 8 dereferenceable(32) %2)
          to label %19 unwind label %28

19:                                               ; preds = %17
  %20 = load ptr, ptr %2, align 8, !tbaa !425
  %21 = getelementptr inbounds nuw i8, ptr %2, i64 16
  %22 = icmp eq ptr %20, %21
  br i1 %22, label %_ZNKSt7__cxx1112basic_stringIcSt11char_traitsIcESaIcEE11_M_is_localEv.exit.thread.i.i, label %_ZNKSt7__cxx1112basic_stringIcSt11char_traitsIcESaIcEE11_M_is_localEv.exit.i.i

_ZNKSt7__cxx1112basic_stringIcSt11char_traitsIcESaIcEE11_M_is_localEv.exit.thread.i.i: ; preds = %19
  %23 = getelementptr inbounds nuw i8, ptr %2, i64 8
  %24 = load i64, ptr %23, align 8, !tbaa !429
  %25 = icmp ult i64 %24, 16
  call void @llvm.assume(i1 %25)
  br label %_ZNSt7__cxx1112basic_stringIcSt11char_traitsIcESaIcEED2Ev.exit

_ZNKSt7__cxx1112basic_stringIcSt11char_traitsIcESaIcEE11_M_is_localEv.exit.i.i: ; preds = %19
  %26 = load i64, ptr %21, align 8, !tbaa !15
  %27 = add i64 %26, 1
  call void @_ZdlPvm(ptr noundef %20, i64 noundef %27) #29
  br label %_ZNSt7__cxx1112basic_stringIcSt11char_traitsIcESaIcEED2Ev.exit

_ZNSt7__cxx1112basic_stringIcSt11char_traitsIcESaIcEED2Ev.exit: ; preds = %_ZNKSt7__cxx1112basic_stringIcSt11char_traitsIcESaIcEE11_M_is_localEv.exit.thread.i.i, %_ZNKSt7__cxx1112basic_stringIcSt11char_traitsIcESaIcEE11_M_is_localEv.exit.i.i
  call void @llvm.lifetime.end.p0(i64 32, ptr nonnull %2) #28
  br label %61

28:                                               ; preds = %17
  %29 = landingpad { ptr, i32 }
          cleanup
  %30 = load ptr, ptr %2, align 8, !tbaa !425
  %31 = getelementptr inbounds nuw i8, ptr %2, i64 16
  %32 = icmp eq ptr %30, %31
  br i1 %32, label %_ZNKSt7__cxx1112basic_stringIcSt11char_traitsIcESaIcEE11_M_is_localEv.exit.thread.i.i16, label %_ZNKSt7__cxx1112basic_stringIcSt11char_traitsIcESaIcEE11_M_is_localEv.exit.i.i15

_ZNKSt7__cxx1112basic_stringIcSt11char_traitsIcESaIcEE11_M_is_localEv.exit.thread.i.i16: ; preds = %28
  %33 = getelementptr inbounds nuw i8, ptr %2, i64 8
  %34 = load i64, ptr %33, align 8, !tbaa !429
  %35 = icmp ult i64 %34, 16
  call void @llvm.assume(i1 %35)
  br label %_ZNSt7__cxx1112basic_stringIcSt11char_traitsIcESaIcEED2Ev.exit17

_ZNKSt7__cxx1112basic_stringIcSt11char_traitsIcESaIcEE11_M_is_localEv.exit.i.i15: ; preds = %28
  %36 = load i64, ptr %31, align 8, !tbaa !15
  %37 = add i64 %36, 1
  call void @_ZdlPvm(ptr noundef %30, i64 noundef %37) #29
  br label %_ZNSt7__cxx1112basic_stringIcSt11char_traitsIcESaIcEED2Ev.exit17

_ZNSt7__cxx1112basic_stringIcSt11char_traitsIcESaIcEED2Ev.exit17: ; preds = %_ZNKSt7__cxx1112basic_stringIcSt11char_traitsIcESaIcEE11_M_is_localEv.exit.thread.i.i16, %_ZNKSt7__cxx1112basic_stringIcSt11char_traitsIcESaIcEE11_M_is_localEv.exit.i.i15
  call void @llvm.lifetime.end.p0(i64 32, ptr nonnull %2) #28
  br label %62

38:                                               ; preds = %_ZNK5Yosys14DriveChunkWire8is_wholeEv.exit.thread
  call void @llvm.lifetime.start.p0(i64 32, ptr nonnull %3) #28
  %39 = add i32 %8, -1
  %40 = add i32 %39, %11
  call void (ptr, ptr, ...) @_ZN5Yosys7stringfB5cxx11EPKcz(ptr dead_on_unwind nonnull writable sret(%"class.std::__cxx11::basic_string") align 8 %3, ptr noundef nonnull @.str.3, ptr noundef %6, i32 noundef %40, i32 noundef %8)
  %41 = invoke noundef ptr @_ZN5Yosys7log_strERKNSt7__cxx1112basic_stringIcSt11char_traitsIcESaIcEEE(ptr noundef nonnull align 8 dereferenceable(32) %3)
          to label %42 unwind label %51

42:                                               ; preds = %38
  %43 = load ptr, ptr %3, align 8, !tbaa !425
  %44 = getelementptr inbounds nuw i8, ptr %3, i64 16
  %45 = icmp eq ptr %43, %44
  br i1 %45, label %_ZNKSt7__cxx1112basic_stringIcSt11char_traitsIcESaIcEE11_M_is_localEv.exit.thread.i.i19, label %_ZNKSt7__cxx1112basic_stringIcSt11char_traitsIcESaIcEE11_M_is_localEv.exit.i.i18

_ZNKSt7__cxx1112basic_stringIcSt11char_traitsIcESaIcEE11_M_is_localEv.exit.thread.i.i19: ; preds = %42
  %46 = getelementptr inbounds nuw i8, ptr %3, i64 8
  %47 = load i64, ptr %46, align 8, !tbaa !429
  %48 = icmp ult i64 %47, 16
  call void @llvm.assume(i1 %48)
  br label %_ZNSt7__cxx1112basic_stringIcSt11char_traitsIcESaIcEED2Ev.exit20

_ZNKSt7__cxx1112basic_stringIcSt11char_traitsIcESaIcEE11_M_is_localEv.exit.i.i18: ; preds = %42
  %49 = load i64, ptr %44, align 8, !tbaa !15
  %50 = add i64 %49, 1
  call void @_ZdlPvm(ptr noundef %43, i64 noundef %50) #29
  br label %_ZNSt7__cxx1112basic_stringIcSt11char_traitsIcESaIcEED2Ev.exit20

_ZNSt7__cxx1112basic_stringIcSt11char_traitsIcESaIcEED2Ev.exit20: ; preds = %_ZNKSt7__cxx1112basic_stringIcSt11char_traitsIcESaIcEE11_M_is_localEv.exit.thread.i.i19, %_ZNKSt7__cxx1112basic_stringIcSt11char_traitsIcESaIcEE11_M_is_localEv.exit.i.i18
  call void @llvm.lifetime.end.p0(i64 32, ptr nonnull %3) #28
  br label %61

51:                                               ; preds = %38
  %52 = landingpad { ptr, i32 }
          cleanup
  %53 = load ptr, ptr %3, align 8, !tbaa !425
  %54 = getelementptr inbounds nuw i8, ptr %3, i64 16
  %55 = icmp eq ptr %53, %54
  br i1 %55, label %_ZNKSt7__cxx1112basic_stringIcSt11char_traitsIcESaIcEE11_M_is_localEv.exit.thread.i.i22, label %_ZNKSt7__cxx1112basic_stringIcSt11char_traitsIcESaIcEE11_M_is_localEv.exit.i.i21

_ZNKSt7__cxx1112basic_stringIcSt11char_traitsIcESaIcEE11_M_is_localEv.exit.thread.i.i22: ; preds = %51
  %56 = getelementptr inbounds nuw i8, ptr %3, i64 8
  %57 = load i64, ptr %56, align 8, !tbaa !429
  %58 = icmp ult i64 %57, 16
  call void @llvm.assume(i1 %58)
  br label %_ZNSt7__cxx1112basic_stringIcSt11char_traitsIcESaIcEED2Ev.exit23

_ZNKSt7__cxx1112basic_stringIcSt11char_traitsIcESaIcEE11_M_is_localEv.exit.i.i21: ; preds = %51
  %59 = load i64, ptr %54, align 8, !tbaa !15
  %60 = add i64 %59, 1
  call void @_ZdlPvm(ptr noundef %53, i64 noundef %60) #29
  br label %_ZNSt7__cxx1112basic_stringIcSt11char_traitsIcESaIcEED2Ev.exit23

_ZNSt7__cxx1112basic_stringIcSt11char_traitsIcESaIcEED2Ev.exit23: ; preds = %_ZNKSt7__cxx1112basic_stringIcSt11char_traitsIcESaIcEE11_M_is_localEv.exit.thread.i.i22, %_ZNKSt7__cxx1112basic_stringIcSt11char_traitsIcESaIcEE11_M_is_localEv.exit.i.i21
  call void @llvm.lifetime.end.p0(i64 32, ptr nonnull %3) #28
  br label %62

61:                                               ; preds = %_ZNK5Yosys14DriveChunkWire8is_wholeEv.exit, %_ZNSt7__cxx1112basic_stringIcSt11char_traitsIcESaIcEED2Ev.exit20, %_ZNSt7__cxx1112basic_stringIcSt11char_traitsIcESaIcEED2Ev.exit
  %.013 = phi ptr [ %18, %_ZNSt7__cxx1112basic_stringIcSt11char_traitsIcESaIcEED2Ev.exit ], [ %41, %_ZNSt7__cxx1112basic_stringIcSt11char_traitsIcESaIcEED2Ev.exit20 ], [ %6, %_ZNK5Yosys14DriveChunkWire8is_wholeEv.exit ]
  ret ptr %.013

62:                                               ; preds = %_ZNSt7__cxx1112basic_stringIcSt11char_traitsIcESaIcEED2Ev.exit23, %_ZNSt7__cxx1112basic_stringIcSt11char_traitsIcESaIcEED2Ev.exit17
  %.pn = phi { ptr, i32 } [ %29, %_ZNSt7__cxx1112basic_stringIcSt11char_traitsIcESaIcEED2Ev.exit17 ], [ %52, %_ZNSt7__cxx1112basic_stringIcSt11char_traitsIcESaIcEED2Ev.exit23 ]
  resume { ptr, i32 } %.pn
}